target datalayout = "e-m:e-p270:32:32-p271:32:32-p272:64:64-i64:64-i128:128-f80:128-n8:16:32:64-S128"
target triple = "x86_64-pc-linux-gnu"

%"class.casadi::SharedObject" = type { ptr }
%"class.casadi::Slice" = type { i64, i64, i64 }
%"class.casadi::GetNonzeros" = type { %"class.casadi::MXNode" }
%"class.casadi::MXNode" = type { %"class.casadi::SharedObjectInternal", i64, %"class.std::vector.3", %"class.casadi::Sparsity" }
%"class.casadi::SharedObjectInternal" = type { ptr, i64, ptr }
%"class.std::vector.3" = type { %"struct.std::_Vector_base.4" }
%"struct.std::_Vector_base.4" = type { %"struct.std::_Vector_base<casadi::MX, std::allocator<casadi::MX>>::_Vector_impl" }
%"struct.std::_Vector_base<casadi::MX, std::allocator<casadi::MX>>::_Vector_impl" = type { %"struct.std::_Vector_base<casadi::MX, std::allocator<casadi::MX>>::_Vector_impl_data" }
%"struct.std::_Vector_base<casadi::MX, std::allocator<casadi::MX>>::_Vector_impl_data" = type { ptr, ptr, ptr }
%"class.casadi::Sparsity" = type { %"class.casadi::SharedObject" }
%"class.casadi::GetNonzerosSlice2" = type { %"class.casadi::GetNonzeros", %"class.casadi::Slice", %"class.casadi::Slice" }

; Function Attrs: mustprogress nounwind uwtable
define noundef i32 @_ZNK6casadi17GetNonzerosSlice210sp_forwardEPPKyPPyPxS4_(ptr noundef nonnull align 8 dereferenceable(112) %0, ptr noundef %1, ptr noundef %2, ptr noundef %3, ptr noundef %4) unnamed_addr #5 align 2 {
  %6 = alloca ptr, align 8
  %7 = alloca ptr, align 8
  %8 = alloca ptr, align 8
  %9 = alloca ptr, align 8
  %10 = alloca ptr, align 8
  %11 = alloca ptr, align 8
  %12 = alloca ptr, align 8
  %13 = alloca i64, align 8
  %14 = alloca i64, align 8
  store ptr %0, ptr %6, align 8
  store ptr %1, ptr %7, align 8
  store ptr %2, ptr %8, align 8
  store ptr %3, ptr %9, align 8
  store ptr %4, ptr %10, align 8
  %15 = load ptr, ptr %6, align 8
  %16 = load ptr, ptr %7, align 8
  %17 = getelementptr inbounds ptr, ptr %16, i64 0
  %18 = load ptr, ptr %17, align 8
  store ptr %18, ptr %11, align 8
  %19 = load ptr, ptr %8, align 8
  %20 = getelementptr inbounds ptr, ptr %19, i64 0
  %21 = load ptr, ptr %20, align 8
  store ptr %21, ptr %12, align 8
  %22 = getelementptr inbounds %"class.casadi::GetNonzerosSlice2", ptr %15, i32 0, i32 2
  %23 = getelementptr inbounds %"class.casadi::Slice", ptr %22, i32 0, i32 0
  %24 = load i64, ptr %23, align 8
  store i64 %24, ptr %13, align 8
  br label %25

25:                                               ; preds = %59, %5
  %26 = load i64, ptr %13, align 8
  %27 = getelementptr inbounds %"class.casadi::GetNonzerosSlice2", ptr %15, i32 0, i32 2
  %28 = getelementptr inbounds %"class.casadi::Slice", ptr %27, i32 0, i32 1
  %29 = load i64, ptr %28, align 8
  %30 = icmp ne i64 %26, %29
  br i1 %30, label %31, label %65

31:                                               ; preds = %25
  %32 = load i64, ptr %13, align 8
  %33 = getelementptr inbounds %"class.casadi::GetNonzerosSlice2", ptr %15, i32 0, i32 1
  %34 = getelementptr inbounds %"class.casadi::Slice", ptr %33, i32 0, i32 0
  %35 = load i64, ptr %34, align 8
  %36 = add nsw i64 %32, %35
  store i64 %36, ptr %14, align 8
  br label %37

37:                                               ; preds = %52, %31
  %38 = load i64, ptr %14, align 8
  %39 = load i64, ptr %13, align 8
  %40 = getelementptr inbounds %"class.casadi::GetNonzerosSlice2", ptr %15, i32 0, i32 1
  %41 = getelementptr inbounds %"class.casadi::Slice", ptr %40, i32 0, i32 1
  %42 = load i64, ptr %41, align 8
  %43 = add nsw i64 %39, %42
  %44 = icmp ne i64 %38, %43
  br i1 %44, label %45, label %58

45:                                               ; preds = %37
  %46 = load ptr, ptr %11, align 8
  %47 = load i64, ptr %14, align 8
  %48 = getelementptr inbounds i64, ptr %46, i64 %47
  %49 = load i64, ptr %48, align 8
  %50 = load ptr, ptr %12, align 8
  %51 = getelementptr inbounds i64, ptr %50, i32 1
  store ptr %51, ptr %12, align 8
  store i64 %49, ptr %50, align 8
  br label %52

52:                                               ; preds = %45
  %53 = getelementptr inbounds %"class.casadi::GetNonzerosSlice2", ptr %15, i32 0, i32 1
  %54 = getelementptr inbounds %"class.casadi::Slice", ptr %53, i32 0, i32 2
  %55 = load i64, ptr %54, align 8
  %56 = load i64, ptr %14, align 8
  %57 = add nsw i64 %56, %55
  store i64 %57, ptr %14, align 8
  br label %37, !llvm.loop !16

58:                                               ; preds = %37
  br label %59

59:                                               ; preds = %58
  %60 = getelementptr inbounds %"class.casadi::GetNonzerosSlice2", ptr %15, i32 0, i32 2
  %61 = getelementptr inbounds %"class.casadi::Slice", ptr %60, i32 0, i32 2
  %62 = load i64, ptr %61, align 8
  %63 = load i64, ptr %13, align 8
  %64 = add nsw i64 %63, %62
  store i64 %64, ptr %13, align 8
  br label %25, !llvm.loop !17

65:                                               ; preds = %25
  ret i32 0
}