; Function Attrs: mustprogress nofree norecurse nosync nounwind memory(readwrite, inaccessiblemem: none) uwtable
define noundef i32 @_ZNK6casadi17GetNonzerosSlice210sp_forwardEPPKyPPyPxS4_(ptr nocapture noundef nonnull readonly align 8 dereferenceable(112) %0, ptr nocapture noundef readonly %1, ptr nocapture noundef readonly %2, ptr nocapture readnone %3, ptr nocapture readnone %4) unnamed_addr #6 align 2 {
  %6 = load ptr, ptr %1, align 8
  %7 = getelementptr inbounds i8, ptr %0, i64 88
  %8 = load i64, ptr %7, align 8
  %9 = getelementptr inbounds i8, ptr %0, i64 96
  %10 = load i64, ptr %9, align 8
  %.not17 = icmp eq i64 %8, %10
  br i1 %.not17, label %._crit_edge22, label %.lr.ph21

.lr.ph21:                                         ; preds = %5
  %11 = load ptr, ptr %2, align 8
  %12 = getelementptr inbounds i8, ptr %0, i64 64
  %13 = getelementptr inbounds i8, ptr %0, i64 72
  %14 = getelementptr inbounds i8, ptr %0, i64 80
  %15 = getelementptr inbounds i8, ptr %0, i64 104
  %.pre = load i64, ptr %13, align 8
  br label %16

16:                                               ; preds = %.lr.ph21, %._crit_edge
  %17 = phi i64 [ %10, %.lr.ph21 ], [ %28, %._crit_edge ]
  %18 = phi i64 [ %.pre, %.lr.ph21 ], [ %29, %._crit_edge ]
  %.01119 = phi i64 [ %8, %.lr.ph21 ], [ %31, %._crit_edge ]
  %.01218 = phi ptr [ %11, %.lr.ph21 ], [ %.1.lcssa, %._crit_edge ]
  %19 = load i64, ptr %12, align 8
  %.not1314 = icmp eq i64 %19, %18
  br i1 %.not1314, label %._crit_edge, label %.lr.ph.preheader

.lr.ph.preheader:                                 ; preds = %16
  %20 = add nsw i64 %19, %.01119
  br label %.lr.ph

.lr.ph:                                           ; preds = %.lr.ph.preheader, %.lr.ph
  %.016 = phi i64 [ %25, %.lr.ph ], [ %20, %.lr.ph.preheader ]
  %.115 = phi ptr [ %23, %.lr.ph ], [ %.01218, %.lr.ph.preheader ]
  %21 = getelementptr inbounds i64, ptr %6, i64 %.016
  %22 = load i64, ptr %21, align 8
  %23 = getelementptr inbounds i8, ptr %.115, i64 8
  store i64 %22, ptr %.115, align 8
  %24 = load i64, ptr %14, align 8
  %25 = add nsw i64 %24, %.016
  %26 = load i64, ptr %13, align 8
  %27 = add nsw i64 %26, %.01119
  %.not13 = icmp eq i64 %25, %27
  br i1 %.not13, label %._crit_edge.loopexit, label %.lr.ph, !llvm.loop !19

._crit_edge.loopexit:                             ; preds = %.lr.ph
  %.pre23 = load i64, ptr %9, align 8
  br label %._crit_edge

._crit_edge:                                      ; preds = %._crit_edge.loopexit, %16
  %28 = phi i64 [ %17, %16 ], [ %.pre23, %._crit_edge.loopexit ]
  %29 = phi i64 [ %18, %16 ], [ %26, %._crit_edge.loopexit ]
  %.1.lcssa = phi ptr [ %.01218, %16 ], [ %23, %._crit_edge.loopexit ]
  %30 = load i64, ptr %15, align 8
  %31 = add nsw i64 %30, %.01119
  %.not = icmp eq i64 %31, %28
  br i1 %.not, label %._crit_edge22, label %16, !llvm.loop !20

._crit_edge22:                                    ; preds = %._crit_edge, %5
  ret i32 0
}